Certificate:
    Data:
        Version: 3 (0x2)
        Serial Number: 2 (0x2)
    Signature Algorithm: sha256WithRSAEncryption
        Issuer: C=US, ST=MD, L=Hagerstown, O=C_William_Hetzer_Inc, OU=CWHvpn, CN=C_William_Hetzer_Inc CA/name=CWHvpn/emailAddress=tkerns@cwilliwmhetzer.com
        Validity
            Not Before: Sep 22 20:12:09 2017 GMT
            Not After : Sep 20 20:12:09 2027 GMT
        Subject: C=US, ST=MD, L=Hagerstown, O=C_William_Hetzer_Inc, OU=CWHvpn, CN=client1/name=CWHvpn/emailAddress=tkerns@cwilliwmhetzer.com
        Subject Public Key Info:
            Public Key Algorithm: rsaEncryption
                Public-Key: (2048 bit)
                Modulus:
                    00:ae:85:6a:78:41:37:2a:ed:72:f5:fd:42:04:b7:
                    e6:85:b0:49:3b:5a:71:f8:c0:1e:dd:c3:dc:9d:74:
                    5f:c3:ba:1b:de:fd:d2:bb:3d:92:99:13:d2:2c:ce:
                    75:91:85:ba:c5:bc:c2:f3:60:e6:1f:d5:cb:3d:97:
                    15:23:50:c1:52:91:ce:8e:3c:f2:eb:1c:10:33:a0:
                    2e:e6:dd:b3:94:dc:61:ad:88:f1:6f:65:f3:61:23:
                    79:3a:b8:fa:12:d5:23:67:f0:2b:5c:28:81:26:bc:
                    ad:cc:f4:0b:0a:fc:bd:69:e6:d0:1f:3a:a1:92:86:
                    42:3a:eb:ef:f0:a5:62:12:97:5d:5b:d8:4b:c7:f8:
                    5f:12:e6:a9:47:00:02:8a:e7:4e:cb:2f:eb:8d:55:
                    81:a6:a1:1d:1b:27:8f:2c:4d:97:11:20:aa:34:30:
                    85:2e:13:43:2b:bb:e1:fa:80:4a:81:94:4b:00:b6:
                    3f:db:69:1c:5c:c5:ec:27:be:a4:d8:56:72:ed:8b:
                    af:12:a8:37:b6:40:8a:35:3c:de:9b:e0:a5:8e:db:
                    ad:87:c1:5a:d2:70:12:a5:26:aa:b2:a6:3e:80:c3:
                    5e:21:bf:34:7e:e1:a8:f4:5c:83:47:58:68:9b:94:
                    9b:01:0c:b1:90:32:68:cb:b1:1d:d9:5b:b1:70:16:
                    26:93
                Exponent: 65537 (0x10001)
        X509v3 extensions:
            X509v3 Basic Constraints: 
                CA:FALSE
            Netscape Comment: 
                Easy-RSA Generated Certificate
            X509v3 Subject Key Identifier: 
                FD:56:FE:96:9A:61:B8:2C:15:C7:3C:3F:79:5A:9A:A4:1B:A7:EF:D3
            X509v3 Authority Key Identifier: 
                keyid:48:AC:93:E1:8A:01:69:CD:BB:27:CB:9E:36:A7:3B:B4:F4:5D:2A:C2
                DirName:/C=US/ST=MD/L=Hagerstown/O=C_William_Hetzer_Inc/OU=CWHvpn/CN=C_William_Hetzer_Inc CA/name=CWHvpn/emailAddress=tkerns@cwilliwmhetzer.com
                serial:EF:A2:9E:0F:C8:8E:D9:FD

            X509v3 Extended Key Usage: 
                TLS Web Client Authentication
            X509v3 Key Usage: 
                Digital Signature
            X509v3 Subject Alternative Name: 
                DNS:client1
    Signature Algorithm: sha256WithRSAEncryption
         05:b1:b3:26:f1:24:08:6e:40:47:d0:ec:75:8d:57:4a:3c:62:
         b8:c9:55:ab:c0:14:22:25:65:35:ed:fa:2d:8a:9d:d2:f2:9a:
         2e:db:e5:be:af:cf:6f:f8:47:2b:99:ed:e2:b0:8c:70:62:1d:
         ca:c9:8b:ec:b4:6a:85:4e:c0:81:99:f3:77:0b:3a:48:3f:85:
         30:51:52:16:db:4a:6a:9c:dd:07:0f:25:09:41:c1:4d:e7:10:
         15:85:ce:00:cf:5f:f4:90:58:d3:64:bf:cd:15:dd:b4:88:3a:
         cf:95:0e:8d:81:d5:35:6f:68:11:5a:15:66:6e:dd:24:5d:81:
         7e:8f:7d:25:8e:7b:98:64:37:7a:fc:bc:06:bb:78:9f:c8:2d:
         65:4e:3d:a4:eb:7c:8b:69:77:25:fe:fe:ef:96:7c:6f:4d:6e:
         1d:4f:44:2b:bf:f3:4e:88:c6:0e:f4:13:11:d9:51:5f:52:7a:
         a7:a2:d3:75:de:72:85:c2:59:e6:b7:1e:a7:1e:69:4a:fb:cb:
         22:5e:64:94:a2:ce:90:70:c8:3b:3c:3c:67:4d:30:27:02:a9:
         8e:41:e6:c5:2f:b9:e3:2c:79:c2:99:11:c2:f4:1e:95:37:bb:
         f2:e2:ae:16:4f:e0:00:5f:c2:b0:82:84:d0:c8:36:7d:d3:03:
         98:17:16:a8
-----BEGIN CERTIFICATE-----
MIIFbjCCBFagAwIBAgIBAjANBgkqhkiG9w0BAQsFADCBvDELMAkGA1UEBhMCVVMx
CzAJBgNVBAgTAk1EMRMwEQYDVQQHEwpIYWdlcnN0b3duMR0wGwYDVQQKFBRDX1dp
bGxpYW1fSGV0emVyX0luYzEPMA0GA1UECxMGQ1dIdnBuMSAwHgYDVQQDFBdDX1dp
bGxpYW1fSGV0emVyX0luYyBDQTEPMA0GA1UEKRMGQ1dIdnBuMSgwJgYJKoZIhvcN
AQkBFhl0a2VybnNAY3dpbGxpd21oZXR6ZXIuY29tMB4XDTE3MDkyMjIwMTIwOVoX
DTI3MDkyMDIwMTIwOVowgawxCzAJBgNVBAYTAlVTMQswCQYDVQQIEwJNRDETMBEG
A1UEBxMKSGFnZXJzdG93bjEdMBsGA1UEChQUQ19XaWxsaWFtX0hldHplcl9JbmMx
DzANBgNVBAsTBkNXSHZwbjEQMA4GA1UEAxMHY2xpZW50MTEPMA0GA1UEKRMGQ1dI
dnBuMSgwJgYJKoZIhvcNAQkBFhl0a2VybnNAY3dpbGxpd21oZXR6ZXIuY29tMIIB
IjANBgkqhkiG9w0BAQEFAAOCAQ8AMIIBCgKCAQEAroVqeEE3Ku1y9f1CBLfmhbBJ
O1px+MAe3cPcnXRfw7ob3v3Suz2SmRPSLM51kYW6xbzC82DmH9XLPZcVI1DBUpHO
jjzy6xwQM6Au5t2zlNxhrYjxb2XzYSN5Orj6EtUjZ/ArXCiBJrytzPQLCvy9aebQ
HzqhkoZCOuvv8KViEpddW9hLx/hfEuapRwACiudOyy/rjVWBpqEdGyePLE2XESCq
NDCFLhNDK7vh+oBKgZRLALY/22kcXMXsJ76k2FZy7YuvEqg3tkCKNTzem+Cljtut
h8Fa0nASpSaqsqY+gMNeIb80fuGo9FyDR1hom5SbAQyxkDJoy7Ed2VuxcBYmkwID
AQABo4IBhzCCAYMwCQYDVR0TBAIwADAtBglghkgBhvhCAQ0EIBYeRWFzeS1SU0Eg
R2VuZXJhdGVkIENlcnRpZmljYXRlMB0GA1UdDgQWBBT9Vv6WmmG4LBXHPD95Wpqk
G6fv0zCB8QYDVR0jBIHpMIHmgBRIrJPhigFpzbsny542pzu09F0qwqGBwqSBvzCB
vDELMAkGA1UEBhMCVVMxCzAJBgNVBAgTAk1EMRMwEQYDVQQHEwpIYWdlcnN0b3du
MR0wGwYDVQQKFBRDX1dpbGxpYW1fSGV0emVyX0luYzEPMA0GA1UECxMGQ1dIdnBu
MSAwHgYDVQQDFBdDX1dpbGxpYW1fSGV0emVyX0luYyBDQTEPMA0GA1UEKRMGQ1dI
dnBuMSgwJgYJKoZIhvcNAQkBFhl0a2VybnNAY3dpbGxpd21oZXR6ZXIuY29tggkA
76KeD8iO2f0wEwYDVR0lBAwwCgYIKwYBBQUHAwIwCwYDVR0PBAQDAgeAMBIGA1Ud
EQQLMAmCB2NsaWVudDEwDQYJKoZIhvcNAQELBQADggEBAAWxsybxJAhuQEfQ7HWN
V0o8YrjJVavAFCIlZTXt+i2KndLymi7b5b6vz2/4RyuZ7eKwjHBiHcrJi+y0aoVO
wIGZ83cLOkg/hTBRUhbbSmqc3QcPJQlBwU3nEBWFzgDPX/SQWNNkv80V3bSIOs+V
Do2B1TVvaBFaFWZu3SRdgX6PfSWOe5hkN3r8vAa7eJ/ILWVOPaTrfItpdyX+/u+W
fG9Nbh1PRCu/806Ixg70ExHZUV9Seqei03XecoXCWea3HqceaUr7yyJeZJSizpBw
yDs8PGdNMCcCqY5B5sUvueMsecKZEcL0HpU3u/LirhZP4ABfwrCChNDINn3TA5gX
Fqg=
-----END CERTIFICATE-----
